; ModuleID = '10/2270.c'
source_filename = "10/2270.c"
target datalayout = "e-m:e-p270:32:32-p271:32:32-p272:64:64-i64:64-f80:128-n8:16:32:64-S128"
target triple = "x86_64-pc-linux-gnu"

@.str = private unnamed_addr constant [3 x i8] c"%d\00", align 1
@k = common dso_local global i32 0, align 4
@a = common dso_local global [25 x i32] zeroinitializer, align 16
@f = common dso_local global [25 x [25 x i32]] zeroinitializer, align 16

; Function Attrs: noinline nounwind uwtable
define dso_local i32 @max(i32 %0, i32 %1) #0 {
  %3 = alloca i32, align 4
  %4 = alloca i32, align 4
  store i32 %0, i32* %3, align 4
  store i32 %1, i32* %4, align 4
  %5 = load i32, i32* %3, align 4
  %6 = load i32, i32* %4, align 4
  %7 = icmp sgt i32 %5, %6
  br i1 %7, label %8, label %10

8:                                                ; preds = %2
  %9 = load i32, i32* %3, align 4
  br label %12

10:                                               ; preds = %2
  %11 = load i32, i32* %4, align 4
  br label %12

12:                                               ; preds = %10, %8
  %13 = phi i32 [ %9, %8 ], [ %11, %10 ]
  ret i32 %13
}

; Function Attrs: noinline nounwind uwtable
define dso_local void @main() #0 {
  %1 = alloca i32, align 4
  %2 = alloca i32, align 4
  %3 = call i32 (i8*, ...) @__isoc99_scanf(i8* getelementptr inbounds ([3 x i8], [3 x i8]* @.str, i64 0, i64 0), i32* @k)
  store i32 0, i32* %1, align 4
  br label %4

4:                                                ; preds = %13, %0
  %5 = load i32, i32* %1, align 4
  %6 = load i32, i32* @k, align 4
  %7 = icmp slt i32 %5, %6
  br i1 %7, label %8, label %16

8:                                                ; preds = %4
  %9 = load i32, i32* %1, align 4
  %10 = sext i32 %9 to i64
  %11 = getelementptr inbounds [25 x i32], [25 x i32]* @a, i64 0, i64 %10
  %12 = call i32 (i8*, ...) @__isoc99_scanf(i8* getelementptr inbounds ([3 x i8], [3 x i8]* @.str, i64 0, i64 0), i32* %11)
  br label %13

13:                                               ; preds = %8
  %14 = load i32, i32* %1, align 4
  %15 = add nsw i32 %14, 1
  store i32 %15, i32* %1, align 4
  br label %4

16:                                               ; preds = %4
  %17 = load i32, i32* getelementptr inbounds ([25 x i32], [25 x i32]* @a, i64 0, i64 0), align 16
  store i32 %17, i32* getelementptr inbounds ([25 x [25 x i32]], [25 x [25 x i32]]* @f, i64 0, i64 0, i64 0), align 16
  store i32 1, i32* %1, align 4
  br label %18

18:                                               ; preds = %105, %16
  %19 = load i32, i32* %1, align 4
  %20 = load i32, i32* @k, align 4
  %21 = icmp slt i32 %19, %20
  br i1 %21, label %22, label %108

22:                                               ; preds = %18
  store i32 0, i32* %2, align 4
  br label %23

23:                                               ; preds = %101, %22
  %24 = load i32, i32* %2, align 4
  %25 = load i32, i32* @k, align 4
  %26 = icmp slt i32 %24, %25
  br i1 %26, label %27, label %104

27:                                               ; preds = %23
  %28 = load i32, i32* %2, align 4
  %29 = icmp eq i32 %28, 0
  br i1 %29, label %30, label %50

30:                                               ; preds = %27
  %31 = load i32, i32* %1, align 4
  %32 = sub nsw i32 %31, 1
  %33 = sext i32 %32 to i64
  %34 = getelementptr inbounds [25 x [25 x i32]], [25 x [25 x i32]]* @f, i64 0, i64 %33
  %35 = load i32, i32* %2, align 4
  %36 = sext i32 %35 to i64
  %37 = getelementptr inbounds [25 x i32], [25 x i32]* %34, i64 0, i64 %36
  %38 = load i32, i32* %37, align 4
  %39 = load i32, i32* %1, align 4
  %40 = sext i32 %39 to i64
  %41 = getelementptr inbounds [25 x i32], [25 x i32]* @a, i64 0, i64 %40
  %42 = load i32, i32* %41, align 4
  %43 = call i32 @max(i32 %38, i32 %42)
  %44 = load i32, i32* %1, align 4
  %45 = sext i32 %44 to i64
  %46 = getelementptr inbounds [25 x [25 x i32]], [25 x [25 x i32]]* @f, i64 0, i64 %45
  %47 = load i32, i32* %2, align 4
  %48 = sext i32 %47 to i64
  %49 = getelementptr inbounds [25 x i32], [25 x i32]* %46, i64 0, i64 %48
  store i32 %43, i32* %49, align 4
  br label %101

50:                                               ; preds = %27
  %51 = load i32, i32* %1, align 4
  %52 = sub nsw i32 %51, 1
  %53 = sext i32 %52 to i64
  %54 = getelementptr inbounds [25 x [25 x i32]], [25 x [25 x i32]]* @f, i64 0, i64 %53
  %55 = load i32, i32* %2, align 4
  %56 = sub nsw i32 %55, 1
  %57 = sext i32 %56 to i64
  %58 = getelementptr inbounds [25 x i32], [25 x i32]* %54, i64 0, i64 %57
  %59 = load i32, i32* %58, align 4
  %60 = load i32, i32* %1, align 4
  %61 = sext i32 %60 to i64
  %62 = getelementptr inbounds [25 x i32], [25 x i32]* @a, i64 0, i64 %61
  %63 = load i32, i32* %62, align 4
  %64 = icmp sge i32 %59, %63
  br i1 %64, label %65, label %85

65:                                               ; preds = %50
  %66 = load i32, i32* %1, align 4
  %67 = sub nsw i32 %66, 1
  %68 = sext i32 %67 to i64
  %69 = getelementptr inbounds [25 x [25 x i32]], [25 x [25 x i32]]* @f, i64 0, i64 %68
  %70 = load i32, i32* %2, align 4
  %71 = sext i32 %70 to i64
  %72 = getelementptr inbounds [25 x i32], [25 x i32]* %69, i64 0, i64 %71
  %73 = load i32, i32* %72, align 4
  %74 = load i32, i32* %1, align 4
  %75 = sext i32 %74 to i64
  %76 = getelementptr inbounds [25 x i32], [25 x i32]* @a, i64 0, i64 %75
  %77 = load i32, i32* %76, align 4
  %78 = call i32 @max(i32 %73, i32 %77)
  %79 = load i32, i32* %1, align 4
  %80 = sext i32 %79 to i64
  %81 = getelementptr inbounds [25 x [25 x i32]], [25 x [25 x i32]]* @f, i64 0, i64 %80
  %82 = load i32, i32* %2, align 4
  %83 = sext i32 %82 to i64
  %84 = getelementptr inbounds [25 x i32], [25 x i32]* %81, i64 0, i64 %83
  store i32 %78, i32* %84, align 4
  br label %100

85:                                               ; preds = %50
  %86 = load i32, i32* %1, align 4
  %87 = sub nsw i32 %86, 1
  %88 = sext i32 %87 to i64
  %89 = getelementptr inbounds [25 x [25 x i32]], [25 x [25 x i32]]* @f, i64 0, i64 %88
  %90 = load i32, i32* %2, align 4
  %91 = sext i32 %90 to i64
  %92 = getelementptr inbounds [25 x i32], [25 x i32]* %89, i64 0, i64 %91
  %93 = load i32, i32* %92, align 4
  %94 = load i32, i32* %1, align 4
  %95 = sext i32 %94 to i64
  %96 = getelementptr inbounds [25 x [25 x i32]], [25 x [25 x i32]]* @f, i64 0, i64 %95
  %97 = load i32, i32* %2, align 4
  %98 = sext i32 %97 to i64
  %99 = getelementptr inbounds [25 x i32], [25 x i32]* %96, i64 0, i64 %98
  store i32 %93, i32* %99, align 4
  br label %100

100:                                              ; preds = %85, %65
  br label %101

101:                                              ; preds = %100, %30
  %102 = load i32, i32* %2, align 4
  %103 = add nsw i32 %102, 1
  store i32 %103, i32* %2, align 4
  br label %23

104:                                              ; preds = %23
  br label %105

105:                                              ; preds = %104
  %106 = load i32, i32* %1, align 4
  %107 = add nsw i32 %106, 1
  store i32 %107, i32* %1, align 4
  br label %18

108:                                              ; preds = %18
  %109 = load i32, i32* @k, align 4
  %110 = sub nsw i32 %109, 1
  store i32 %110, i32* %2, align 4
  br label %111

111:                                              ; preds = %121, %108
  %112 = load i32, i32* @k, align 4
  %113 = sub nsw i32 %112, 1
  %114 = sext i32 %113 to i64
  %115 = getelementptr inbounds [25 x [25 x i32]], [25 x [25 x i32]]* @f, i64 0, i64 %114
  %116 = load i32, i32* %2, align 4
  %117 = sext i32 %116 to i64
  %118 = getelementptr inbounds [25 x i32], [25 x i32]* %115, i64 0, i64 %117
  %119 = load i32, i32* %118, align 4
  %120 = icmp eq i32 %119, 0
  br i1 %120, label %121, label %124

121:                                              ; preds = %111
  %122 = load i32, i32* %2, align 4
  %123 = add nsw i32 %122, -1
  store i32 %123, i32* %2, align 4
  br label %111

124:                                              ; preds = %111
  %125 = load i32, i32* %2, align 4
  %126 = add nsw i32 %125, 1
  %127 = call i32 (i8*, ...) @printf(i8* getelementptr inbounds ([3 x i8], [3 x i8]* @.str, i64 0, i64 0), i32 %126)
  ret void
}

declare dso_local i32 @__isoc99_scanf(i8*, ...) #1

declare dso_local i32 @printf(i8*, ...) #1


!llvm.module.flags = !{!0}
!llvm.ident = !{!1}

!0 = !{i32 1, !"wchar_size", i32 4}
!1 = !{!"clang version 10.0.0-4ubuntu1 "}
